target datalayout = "e-m:e-p270:32:32-p271:32:32-p272:64:64-i64:64-i128:128-f80:128-n8:16:32:64-S128"
target triple = "x86_64-unknown-linux-gnu"

%struct.Token = type { i32, ptr, i64, x86_fp80, ptr, i32, ptr, ptr, ptr, ptr, i32, i32, i8, i8, ptr, ptr }

@.str.18 = private unnamed_addr constant [2 x i8] c"+\00", align 1
@.str.19 = private unnamed_addr constant [2 x i8] c"-\00", align 1

; Function Attrs: nounwind uwtable
define internal ptr @add(ptr noundef %rest, ptr noundef %tok) #0 {
entry:
  %rest.addr = alloca ptr, align 8
  %tok.addr = alloca ptr, align 8
  %node = alloca ptr, align 8
  %start = alloca ptr, align 8
  store ptr %rest, ptr %rest.addr, align 8
  store ptr %tok, ptr %tok.addr, align 8
  %0 = load ptr, ptr %tok.addr, align 8
  %call = call ptr @mul(ptr noundef %tok.addr, ptr noundef %0)
  store ptr %call, ptr %node, align 8
  br label %for.cond

for.cond:                                         ; preds = %if.then5, %if.then, %entry
  %1 = load ptr, ptr %tok.addr, align 8
  store ptr %1, ptr %start, align 8
  %2 = load ptr, ptr %tok.addr, align 8
  %call1 = call zeroext i1 @equal(ptr noundef %2, ptr noundef @.str.18)
  br i1 %call1, label %if.then, label %if.end

if.then:                                          ; preds = %for.cond
  %3 = load ptr, ptr %node, align 8
  %4 = load ptr, ptr %tok.addr, align 8
  %next = getelementptr inbounds %struct.Token, ptr %4, i32 0, i32 1
  %5 = load ptr, ptr %next, align 8
  %call2 = call ptr @mul(ptr noundef %tok.addr, ptr noundef %5)
  %6 = load ptr, ptr %start, align 8
  %call3 = call ptr @new_add(ptr noundef %3, ptr noundef %call2, ptr noundef %6)
  store ptr %call3, ptr %node, align 8
  br label %for.cond

if.end:                                           ; preds = %for.cond
  %7 = load ptr, ptr %tok.addr, align 8
  %call4 = call zeroext i1 @equal(ptr noundef %7, ptr noundef @.str.19)
  br i1 %call4, label %if.then5, label %if.end9

if.then5:                                         ; preds = %if.end
  %8 = load ptr, ptr %node, align 8
  %9 = load ptr, ptr %tok.addr, align 8
  %next6 = getelementptr inbounds %struct.Token, ptr %9, i32 0, i32 1
  %10 = load ptr, ptr %next6, align 8
  %call7 = call ptr @mul(ptr noundef %tok.addr, ptr noundef %10)
  %11 = load ptr, ptr %start, align 8
  %call8 = call ptr @new_sub(ptr noundef %8, ptr noundef %call7, ptr noundef %11)
  store ptr %call8, ptr %node, align 8
  br label %for.cond

if.end9:                                          ; preds = %if.end
  %12 = load ptr, ptr %tok.addr, align 8
  %13 = load ptr, ptr %rest.addr, align 8
  store ptr %12, ptr %13, align 8
  %14 = load ptr, ptr %node, align 8
  ret ptr %14
}