; Function Attrs: nounwind uwtable
define internal fastcc ptr @add(ptr nocapture noundef writeonly %rest, ptr noundef %tok) unnamed_addr #0 {
entry:
  %tok.addr = alloca ptr, align 8
  store ptr %tok, ptr %tok.addr, align 8
  %call = call fastcc ptr @mul(ptr noundef nonnull %tok.addr, ptr noundef %tok)
  br label %for.cond

for.cond:                                         ; preds = %for.cond.backedge, %entry
  %node.0 = phi ptr [ %call, %entry ], [ %node.0.be, %for.cond.backedge ]
  %0 = load ptr, ptr %tok.addr, align 8
  %call1 = tail call zeroext i1 @equal(ptr noundef %0, ptr noundef nonnull @.str.18) #13
  br i1 %call1, label %if.then, label %if.end

if.then:                                          ; preds = %for.cond
  %next = getelementptr inbounds %struct.Token, ptr %0, i64 0, i32 1
  %1 = load ptr, ptr %next, align 8
  %call2 = call fastcc ptr @mul(ptr noundef nonnull %tok.addr, ptr noundef %1)
  %call3 = tail call fastcc ptr @new_add(ptr noundef %node.0, ptr noundef %call2, ptr noundef %0)
  br label %for.cond.backedge

for.cond.backedge:                                ; preds = %if.then, %if.then5
  %node.0.be = phi ptr [ %call3, %if.then ], [ %call8, %if.then5 ]
  br label %for.cond

if.end:                                           ; preds = %for.cond
  %call4 = tail call zeroext i1 @equal(ptr noundef %0, ptr noundef nonnull @.str.19) #13
  br i1 %call4, label %if.then5, label %if.end9

if.then5:                                         ; preds = %if.end
  %next6 = getelementptr inbounds %struct.Token, ptr %0, i64 0, i32 1
  %2 = load ptr, ptr %next6, align 8
  %call7 = call fastcc ptr @mul(ptr noundef nonnull %tok.addr, ptr noundef %2)
  %call8 = tail call fastcc ptr @new_sub(ptr noundef %node.0, ptr noundef %call7, ptr noundef %0)
  br label %for.cond.backedge

if.end9:                                          ; preds = %if.end
  store ptr %0, ptr %rest, align 8
  ret ptr %node.0
}